; Function Attrs: null_pointer_is_valid sspstrong uwtable
define internal ptr @unsigned32_avp(ptr noundef readonly captures(none) %0, ptr noundef readonly captures(none) %1, ptr noundef %2, ptr noundef writeonly captures(none) %3) #0 {
  %5 = tail call i32 @tvb_reported_length(ptr noundef %2)
  %6 = icmp eq i32 %5, 4
  %7 = load ptr, ptr %0, align 8
  br i1 %6, label %8, label %23

8:                                                ; preds = %4
  %.not = icmp eq ptr %7, null
  br i1 %.not, label %proto_item_set_generated.exit, label %9

9:                                                ; preds = %8
  %10 = getelementptr inbounds nuw i8, ptr %1, i64 28
  %11 = load i32, ptr %10, align 4
  %12 = tail call ptr @proto_tree_add_item(ptr noundef nonnull %7, i32 noundef %11, ptr noundef %2, i32 noundef 0, i32 noundef 4, i32 noundef 0)
  %13 = getelementptr inbounds nuw i8, ptr %3, i64 32
  store ptr %12, ptr %13, align 8
  %14 = getelementptr inbounds nuw i8, ptr %0, i64 8
  %15 = load ptr, ptr %14, align 8
  %16 = getelementptr inbounds nuw i8, ptr %15, i64 408
  %17 = load ptr, ptr %16, align 8
  %18 = tail call noalias dereferenceable_or_null(241) ptr @wmem_alloc(ptr noundef %17, i64 noundef 241) #15
  %19 = getelementptr inbounds nuw i8, ptr %12, i64 40
  %20 = load ptr, ptr %19, align 8
  tail call void @proto_item_fill_label(ptr noundef %20, ptr noundef %18, ptr noundef null)
  %21 = tail call ptr @strstr(ptr noundef %18, ptr noundef nonnull dereferenceable(1) @.str.70) #18
  %22 = getelementptr i8, ptr %21, i64 2
  br label %proto_item_set_generated.exit

23:                                               ; preds = %4
  %24 = load i32, ptr @hf_diameter_avp_data_wrong_length, align 4
  %25 = tail call ptr (ptr, i32, ptr, i32, i32, ptr, ptr, ...) @proto_tree_add_bytes_format(ptr noundef %7, i32 noundef %24, ptr noundef %2, i32 noundef 0, i32 noundef %5, ptr noundef null, ptr noundef nonnull @.str.124)
  %26 = getelementptr inbounds nuw i8, ptr %0, i64 8
  %27 = load ptr, ptr %26, align 8
  %28 = tail call ptr (ptr, ptr, ptr, ptr, ...) @expert_add_info_format(ptr noundef %27, ptr noundef %25, ptr noundef nonnull @ei_diameter_avp_len, ptr noundef nonnull @.str.125, i32 noundef %5)
  %.not.i = icmp eq ptr %25, null
  br i1 %.not.i, label %proto_item_set_generated.exit, label %29

29:                                               ; preds = %23
  %30 = getelementptr inbounds nuw i8, ptr %25, i64 40
  %31 = load ptr, ptr %30, align 8
  %.not5.i = icmp eq ptr %31, null
  br i1 %.not5.i, label %proto_item_set_generated.exit, label %32

32:                                               ; preds = %29
  %33 = getelementptr inbounds nuw i8, ptr %31, i64 28
  %34 = load i32, ptr %33, align 4
  %35 = or i32 %34, 2
  store i32 %35, ptr %33, align 4
  br label %proto_item_set_generated.exit

proto_item_set_generated.exit:                    ; preds = %32, %29, %23, %8, %9
  %.0 = phi ptr [ %22, %9 ], [ null, %8 ], [ null, %23 ], [ null, %29 ], [ null, %32 ]
  ret ptr %.0
}